-----BEGIN PRIVATE KEY-----
MIIEvgIBADANBgkqhkiG9w0BAQEFAASCBKgwggSkAgEAAoIBAQDElZuUKYwul6lr
dyrg2fp/UO58Yuo2Sh/D+sCNiJsvCWSayC6ZSf14zAez7a3y4dno04tpVTeG3JXE
dU8NDR/PrRJUjhlNt7/7g4hZcEJVXuzubdkMSB9lIlY2sb4HVAqpdR7PG165qxWJ
/vSf/KL4WFPn96MEjxUDpNZRw6WvAqUxUayb1PrVkK4XFPTDtJeTBNGPmwlfXqNf
7l+xx5Ixg31WTAt0VFJYIzN5KPJGdmDPL9y7jsLRZY9OLbGZ/h9n+xREDU5Woy8t
7+w5DNjNLgqKH5SIp4FKy1+P/OtV+RMi/vUSCheMuSOEfPgNMQJ4CQ1LcO3pjhhH
E6HvDqeXAgMBAAECggEAZikBgwvcZ9I1Hz38sIFXJpbeeRHGeZQn0ecb7fGSA+2z
tKRXYx4KdZ5CWoUoItKwNcjJ6GF6y8ESq9fyzuuFHp3oqrx19eeKA6ElWKV4M3lz
U60OYM2SUzJ271GLWa+ZIttUuXiVz5NTTDWM1x+pabotUJ1mwFXDK/Ob1T4BemLR
5J9G4jAfAXWlxxQnZjDAX+YZfSAeDusXFOCUfVUy/VPY97dcz5A35344dhm0fARk
45Btk8l7d6JAmeUrwdBbvcwD6FbMYtNwiFSqjF2hFdNcOc582irNzWOCwQxwbP8D
WvrkAKoPXt5yYjdE5ATWdfreg9QD8DpOYEaawuJjoQKBgQDvOfZxLLlvOOB+KV/3
kL92woO5Gpu3hQMYQufiMILmMZ+fxOU3ptIrZXn1ObXecIpzOYiVBRw8b9g4hIrT
k3w1kFKBAjhM6s8rBRVm4oafLRBE1Iu1oh+x1bSiYmh+7UbV+xzmselE44RDzIeb
iLA9Sr5pR/i2SIfw4Hraas9Z+QKBgQDSXjwSdSS05XV9Bzvc9x/VTETVBiVI3tBW
D8Dr5OzvkdshBm63P2/n5qI1PZWLTm+cpXGDTXZ0RdFoULIsdg2Dz6Hyo9fTivK7
3eOf1W7eH2JDWQsEy1KyyaP9WbknSmiajpZ99IFV7Hdi5KPAw6EeNli5GZB7jA0I
2VZx93PyDwKBgC+f827uf3Aj+5VCOWe4ulUzPjQAlxV+9nHDCBTgoX6gTG3rLdLZ
dCfNiO0H8yv4baeowYchQFDL11jREi4yw1yKgdJLFdhCOsIOvgcAe9p+hymcwr+D
KhomOFLHkpQKOrroxgUrUAw12yQAONL+8E8TbTraaCop4F5U4kBPWT5JAoGBAJbg
93zVf8oueKF/urO0mqRE22ldywgEpq/TBK8rtbPtjJiXIHlVilFs3RIKZWNQkkRr
dIqT2E10dci3d9LjqLXNCX4ZfQZANfAAKO3OCoJNSBC9oGWD3oBUlsVywJUpjPSt
J8qWvtx9iPLowXnT1Y7xs5iueS3jOMYL+zAqJoKJAoGBAKDgeqTZN9qgtLqY6a0n
O7Vm2+0w5j4tQsPMgn+xEKojLl5hswrZL+Yu2kOJe95eZN4tCkiH1KcAlou5vz/x
vjakbb0hI6WTzzCMz3GlAo3CIwYWKRFYNW3rlR92m8X/ua5KHCjIiOfzOWFbkUBL
X5sADGTCbpxyMQLFr7Yif53M
-----END PRIVATE KEY-----
Certificate:
    Data:
        Version: 3 (0x2)
        Serial Number: 21 (0x15)
    Signature Algorithm: sha384WithRSAEncryption
        Issuer: C=US, ST=TX, L=Austin, O=Dell, OU=Product Group, CN=iDRAC RootCA/emailAddress=support@dell.com
        Validity
            Not Before: Jan  1 12:00:00 1969 GMT
            Not After : Aug 21 20:13:35 2031 GMT
        Subject: C=US, ST=TX, L=Austin, O=Dell, OU=Product Group, CN=iDRAC <default>/emailAddress=support@dell.com
        Subject Public Key Info:
            Public Key Algorithm: rsaEncryption
                Public-Key: (2048 bit)
                Modulus:
                    00:c4:95:9b:94:29:8c:2e:97:a9:6b:77:2a:e0:d9:
                    fa:7f:50:ee:7c:62:ea:36:4a:1f:c3:fa:c0:8d:88:
                    9b:2f:09:64:9a:c8:2e:99:49:fd:78:cc:07:b3:ed:
                    ad:f2:e1:d9:e8:d3:8b:69:55:37:86:dc:95:c4:75:
                    4f:0d:0d:1f:cf:ad:12:54:8e:19:4d:b7:bf:fb:83:
                    88:59:70:42:55:5e:ec:ee:6d:d9:0c:48:1f:65:22:
                    56:36:b1:be:07:54:0a:a9:75:1e:cf:1b:5e:b9:ab:
                    15:89:fe:f4:9f:fc:a2:f8:58:53:e7:f7:a3:04:8f:
                    15:03:a4:d6:51:c3:a5:af:02:a5:31:51:ac:9b:d4:
                    fa:d5:90:ae:17:14:f4:c3:b4:97:93:04:d1:8f:9b:
                    09:5f:5e:a3:5f:ee:5f:b1:c7:92:31:83:7d:56:4c:
                    0b:74:54:52:58:23:33:79:28:f2:46:76:60:cf:2f:
                    dc:bb:8e:c2:d1:65:8f:4e:2d:b1:99:fe:1f:67:fb:
                    14:44:0d:4e:56:a3:2f:2d:ef:ec:39:0c:d8:cd:2e:
                    0a:8a:1f:94:88:a7:81:4a:cb:5f:8f:fc:eb:55:f9:
                    13:22:fe:f5:12:0a:17:8c:b9:23:84:7c:f8:0d:31:
                    02:78:09:0d:4b:70:ed:e9:8e:18:47:13:a1:ef:0e:
                    a7:97
                Exponent: 65537 (0x10001)
        X509v3 extensions:
            X509v3 Basic Constraints: 
                CA:FALSE
            Netscape Comment: 
                OpenSSL Generated Certificate
            X509v3 Subject Key Identifier: 
                CF:87:56:75:8B:87:25:E5:95:0C:93:56:40:8D:2E:44:C5:9A:D6:B2
            X509v3 Authority Key Identifier: 
                keyid:9E:EE:A1:E0:84:91:1C:D1:0C:37:0D:22:62:B3:82:AD:85:35:CF:5C
                DirName:/C=US/ST=TX/L=Austin/O=Dell/OU=Product Group/CN=iDRAC RootCA/emailAddress=support@dell.com
                serial:00

    Signature Algorithm: sha384WithRSAEncryption
         ba:0f:69:ac:cb:b4:ae:a7:91:4b:54:a3:e7:31:91:33:11:29:
         15:ff:41:4e:7e:26:03:70:77:d0:df:1a:e5:93:d8:52:e8:82:
         7b:fe:92:71:72:4f:28:c8:47:97:fd:8d:d7:36:48:c2:10:96:
         fd:6a:d9:ec:a9:9b:bf:d3:e7:ab:a1:15:29:68:51:b1:46:c6:
         bd:ed:e2:f6:a9:18:c4:24:e0:27:b6:d3:d1:e3:c8:66:fe:fd:
         84:d3:ba:62:b2:f4:dd:82:6e:43:ef:ef:51:7e:63:c0:6c:4b:
         a9:fe:0e:aa:91:c6:90:0a:28:c4:de:a9:76:09:07:9a:e3:88:
         be:4d
-----BEGIN CERTIFICATE-----
MIIEKzCCA5SgAwIBAgIBFTANBgkqhkiG9w0BAQwFADCBijELMAkGA1UEBhMCVVMx
CzAJBgNVBAgTAlRYMQ8wDQYDVQQHEwZBdXN0aW4xDTALBgNVBAoTBERlbGwxFjAU
BgNVBAsTDVByb2R1Y3QgR3JvdXAxFTATBgNVBAMTDGlEUkFDIFJvb3RDQTEfMB0G
CSqGSIb3DQEJARYQc3VwcG9ydEBkZWxsLmNvbTAeFw02OTAxMDExMjAwMDBaFw0z
MTA4MjEyMDEzMzVaMIGNMQswCQYDVQQGEwJVUzELMAkGA1UECBMCVFgxDzANBgNV
BAcTBkF1c3RpbjENMAsGA1UEChMERGVsbDEWMBQGA1UECxMNUHJvZHVjdCBHcm91
cDEYMBYGA1UEAxQPaURSQUMgPGRlZmF1bHQ+MR8wHQYJKoZIhvcNAQkBFhBzdXBw
b3J0QGRlbGwuY29tMIIBIjANBgkqhkiG9w0BAQEFAAOCAQ8AMIIBCgKCAQEAxJWb
lCmMLpepa3cq4Nn6f1DufGLqNkofw/rAjYibLwlkmsgumUn9eMwHs+2t8uHZ6NOL
aVU3htyVxHVPDQ0fz60SVI4ZTbe/+4OIWXBCVV7s7m3ZDEgfZSJWNrG+B1QKqXUe
zxteuasVif70n/yi+FhT5/ejBI8VA6TWUcOlrwKlMVGsm9T61ZCuFxT0w7SXkwTR
j5sJX16jX+5fsceSMYN9VkwLdFRSWCMzeSjyRnZgzy/cu47C0WWPTi2xmf4fZ/sU
RA1OVqMvLe/sOQzYzS4Kih+UiKeBSstfj/zrVfkTIv71EgoXjLkjhHz4DTECeAkN
S3Dt6Y4YRxOh7w6nlwIDAQABo4IBFjCCARIwCQYDVR0TBAIwADAsBglghkgBhvhC
AQ0EHxYdT3BlblNTTCBHZW5lcmF0ZWQgQ2VydGlmaWNhdGUwHQYDVR0OBBYEFM+H
VnWLhyXllQyTVkCNLkTFmtayMIG3BgNVHSMEga8wgayAFJ7uoeCEkRzRDDcNImKz
gq2FNc9coYGQpIGNMIGKMQswCQYDVQQGEwJVUzELMAkGA1UECBMCVFgxDzANBgNV
BAcTBkF1c3RpbjENMAsGA1UEChMERGVsbDEWMBQGA1UECxMNUHJvZHVjdCBHcm91
cDEVMBMGA1UEAxMMaURSQUMgUm9vdENBMR8wHQYJKoZIhvcNAQkBFhBzdXBwb3J0
QGRlbGwuY29tggEAMA0GCSqGSIb3DQEBDAUAA4GBALoPaazLtK6nkUtUo+cxkTMR
KRX/QU5+JgNwd9DfGuWT2FLognv+knFyTyjIR5f9jdc2SMIQlv1q2eypm7/T56uh
FSloUbFGxr3t4vapGMQk4Ce209HjyGb+/YTTumKy9N2CbkPv71F+Y8BsS6n+DqqR
xpAKKMTeqXYJB5rjiL5N
-----END CERTIFICATE-----
